target datalayout = "e-m:e-p270:32:32-p271:32:32-p272:64:64-i64:64-i128:128-f80:128-n8:16:32:64-S128"
target triple = "x86_64-unknown-linux-gnu"

%"class.google::LogMessageVoidify" = type { i8 }
%"class.google::LogMessageFatal" = type { %"class.google::LogMessage" }
%"class.google::LogMessage" = type { ptr, ptr, %"struct.google::LogMessageTime" }
%"struct.google::LogMessageTime" = type { %struct.tm, i64, i32, i64 }
%struct.tm = type { i32, i32, i32, i32, i32, i32, i32, i32, i32, i64, ptr }
%"class.proxygen::ZlibStreamDecompressor" = type <{ %"class.proxygen::StreamDecompressor", i32, [4 x i8], i64, i64, %struct.z_stream_s, i32, [4 x i8] }>
%"class.proxygen::StreamDecompressor" = type { ptr }
%struct.z_stream_s = type { ptr, i32, i64, ptr, i32, i64, ptr, ptr, ptr, ptr, ptr, i32, i64, i64 }

@.str = private unnamed_addr constant [141 x i8] c"generated/home/dtcxzyw/WorkSpace/Projects/compilers/llvm-opt-benchmark/bench/proxygen/proxygen/proxygen/lib/utils/ZlibStreamDecompressor.cpp\00", align 1
@.str.1 = private unnamed_addr constant [46 x i8] c"Check failed: type_ == CompressionType::NONE \00", align 1
@.str.2 = private unnamed_addr constant [22 x i8] c"Must be uninitialized\00", align 1
@.str.3 = private unnamed_addr constant [81 x i8] c"Check failed: type == CompressionType::DEFLATE || type == CompressionType::GZIP \00", align 1
@.str.4 = private unnamed_addr constant [7 x i8] c"1.2.13\00", align 1

; Function Attrs: mustprogress nounwind uwtable
define linkonce_odr void @_ZN6google17LogMessageVoidifyanERSo(ptr noundef nonnull align 1 dereferenceable(1) %this, ptr noundef nonnull align 8 dereferenceable(8) %0) #1 comdat align 2 {
entry:
  %this.addr = alloca ptr, align 8
  %.addr = alloca ptr, align 8
  store ptr %this, ptr %this.addr, align 8
  store ptr %0, ptr %.addr, align 8
  ret void
}

; Function Attrs: mustprogress nounwind uwtable
define linkonce_odr void @_ZN6google17LogMessageVoidifyC2Ev(ptr noundef nonnull align 1 dereferenceable(1) %this) unnamed_addr #1 comdat align 2 {
entry:
  %this.addr = alloca ptr, align 8
  store ptr %this, ptr %this.addr, align 8
  ret void
}

; Function Attrs: mustprogress nounwind uwtable
define linkonce_odr void @_ZN8proxygen18StreamDecompressorD2Ev(ptr noundef nonnull align 8 dereferenceable(8) %this) unnamed_addr #1 comdat align 2 {
entry:
  %this.addr = alloca ptr, align 8
  store ptr %this, ptr %this.addr, align 8
  ret void
}

; Function Attrs: mustprogress uwtable
define void @_ZN8proxygen22ZlibStreamDecompressor4initENS_15CompressionTypeE(ptr noundef nonnull align 8 dereferenceable(148) %this, i32 noundef %type) #0 align 2 personality ptr @__gxx_personality_v0 {
entry:
  %this.addr = alloca ptr, align 8
  %type.addr = alloca i32, align 4
  %ref.tmp = alloca %"class.google::LogMessageVoidify", align 1
  %ref.tmp2 = alloca %"class.google::LogMessageFatal", align 8
  %cleanup.cond = alloca i1, align 1
  %exn.slot = alloca ptr, align 8
  %ehselector.slot = alloca i32, align 4
  %ref.tmp26 = alloca %"class.google::LogMessageVoidify", align 1
  %ref.tmp27 = alloca %"class.google::LogMessageFatal", align 8
  %cleanup.cond28 = alloca i1, align 1
  %windowBits = alloca i32, align 4
  store ptr %this, ptr %this.addr, align 8
  store i32 %type, ptr %type.addr, align 4
  %this1 = load ptr, ptr %this.addr, align 8
  br label %while.cond

while.cond:                                       ; preds = %cleanup.done, %entry
  br i1 false, label %while.body, label %while.end

while.body:                                       ; preds = %while.cond
  %type_ = getelementptr inbounds %"class.proxygen::ZlibStreamDecompressor", ptr %this1, i32 0, i32 1
  %0 = load i32, ptr %type_, align 8
  %cmp = icmp eq i32 %0, 0
  %lnot = xor i1 %cmp, true
  store i1 false, ptr %cleanup.cond, align 1
  br i1 %lnot, label %cond.false, label %cond.true

cond.true:                                        ; preds = %while.body
  br label %cond.end

cond.false:                                       ; preds = %while.body
  call void @_ZN6google17LogMessageVoidifyC2Ev(ptr noundef nonnull align 1 dereferenceable(1) %ref.tmp)
  call void @_ZN6google15LogMessageFatalC1EPKci(ptr noundef nonnull align 8 dereferenceable(96) %ref.tmp2, ptr noundef @.str, i32 noundef 18)
  store i1 true, ptr %cleanup.cond, align 1
  %call = invoke noundef nonnull align 8 dereferenceable(8) ptr @_ZN6google10LogMessage6streamEv(ptr noundef nonnull align 8 dereferenceable(96) %ref.tmp2)
          to label %invoke.cont unwind label %lpad

invoke.cont:                                      ; preds = %cond.false
  %call4 = invoke noundef nonnull align 8 dereferenceable(8) ptr @_ZStlsISt11char_traitsIcEERSt13basic_ostreamIcT_ES5_PKc(ptr noundef nonnull align 8 dereferenceable(8) %call, ptr noundef @.str.1)
          to label %invoke.cont3 unwind label %lpad

invoke.cont3:                                     ; preds = %invoke.cont
  %call6 = invoke noundef nonnull align 8 dereferenceable(8) ptr @_ZStlsISt11char_traitsIcEERSt13basic_ostreamIcT_ES5_PKc(ptr noundef nonnull align 8 dereferenceable(8) %call4, ptr noundef @.str.2)
          to label %invoke.cont5 unwind label %lpad

invoke.cont5:                                     ; preds = %invoke.cont3
  invoke void @_ZN6google17LogMessageVoidifyanERSo(ptr noundef nonnull align 1 dereferenceable(1) %ref.tmp, ptr noundef nonnull align 8 dereferenceable(8) %call6)
          to label %invoke.cont7 unwind label %lpad

invoke.cont7:                                     ; preds = %invoke.cont5
  br label %cond.end

cond.end:                                         ; preds = %invoke.cont7, %cond.true
  %cleanup.is_active = load i1, ptr %cleanup.cond, align 1
  br i1 %cleanup.is_active, label %cleanup.action, label %cleanup.done

cleanup.action:                                   ; preds = %cond.end
  call void @_ZN6google15LogMessageFatalD1Ev(ptr noundef nonnull align 8 dereferenceable(96) %ref.tmp2) #11
  unreachable

lpad:                                             ; preds = %invoke.cont5, %invoke.cont3, %invoke.cont, %cond.false
  %1 = landingpad { ptr, i32 }
          cleanup
  %2 = extractvalue { ptr, i32 } %1, 0
  store ptr %2, ptr %exn.slot, align 8
  %3 = extractvalue { ptr, i32 } %1, 1
  store i32 %3, ptr %ehselector.slot, align 4
  %cleanup.is_active8 = load i1, ptr %cleanup.cond, align 1
  br i1 %cleanup.is_active8, label %cleanup.action9, label %cleanup.done10

4:                                                ; No predecessors!
  br label %cleanup.done

cleanup.done:                                     ; preds = %4, %cond.end
  br label %while.cond, !llvm.loop !4

cleanup.action9:                                  ; preds = %lpad
  call void @_ZN6google15LogMessageFatalD1Ev(ptr noundef nonnull align 8 dereferenceable(96) %ref.tmp2) #11
  unreachable

5:                                                ; No predecessors!
  br label %cleanup.done10

cleanup.done10:                                   ; preds = %5, %lpad
  br label %eh.resume

while.end:                                        ; preds = %while.cond
  %6 = load i32, ptr %type.addr, align 4
  %type_11 = getelementptr inbounds %"class.proxygen::ZlibStreamDecompressor", ptr %this1, i32 0, i32 1
  store i32 %6, ptr %type_11, align 8
  %status_ = getelementptr inbounds %"class.proxygen::ZlibStreamDecompressor", ptr %this1, i32 0, i32 6
  store i32 0, ptr %status_, align 8
  %zlibStream_ = getelementptr inbounds %"class.proxygen::ZlibStreamDecompressor", ptr %this1, i32 0, i32 5
  %zalloc = getelementptr inbounds %struct.z_stream_s, ptr %zlibStream_, i32 0, i32 8
  store ptr null, ptr %zalloc, align 8
  %zlibStream_12 = getelementptr inbounds %"class.proxygen::ZlibStreamDecompressor", ptr %this1, i32 0, i32 5
  %zfree = getelementptr inbounds %struct.z_stream_s, ptr %zlibStream_12, i32 0, i32 9
  store ptr null, ptr %zfree, align 8
  %zlibStream_13 = getelementptr inbounds %"class.proxygen::ZlibStreamDecompressor", ptr %this1, i32 0, i32 5
  %opaque = getelementptr inbounds %struct.z_stream_s, ptr %zlibStream_13, i32 0, i32 10
  store ptr null, ptr %opaque, align 8
  %zlibStream_14 = getelementptr inbounds %"class.proxygen::ZlibStreamDecompressor", ptr %this1, i32 0, i32 5
  %total_in = getelementptr inbounds %struct.z_stream_s, ptr %zlibStream_14, i32 0, i32 2
  store i64 0, ptr %total_in, align 8
  %zlibStream_15 = getelementptr inbounds %"class.proxygen::ZlibStreamDecompressor", ptr %this1, i32 0, i32 5
  %next_in = getelementptr inbounds %struct.z_stream_s, ptr %zlibStream_15, i32 0, i32 0
  store ptr null, ptr %next_in, align 8
  %zlibStream_16 = getelementptr inbounds %"class.proxygen::ZlibStreamDecompressor", ptr %this1, i32 0, i32 5
  %avail_in = getelementptr inbounds %struct.z_stream_s, ptr %zlibStream_16, i32 0, i32 1
  store i32 0, ptr %avail_in, align 8
  %zlibStream_17 = getelementptr inbounds %"class.proxygen::ZlibStreamDecompressor", ptr %this1, i32 0, i32 5
  %avail_out = getelementptr inbounds %struct.z_stream_s, ptr %zlibStream_17, i32 0, i32 4
  store i32 0, ptr %avail_out, align 8
  %zlibStream_18 = getelementptr inbounds %"class.proxygen::ZlibStreamDecompressor", ptr %this1, i32 0, i32 5
  %next_out = getelementptr inbounds %struct.z_stream_s, ptr %zlibStream_18, i32 0, i32 3
  store ptr null, ptr %next_out, align 8
  br label %while.cond19

while.cond19:                                     ; preds = %cleanup.done38, %while.end
  br i1 false, label %while.body20, label %while.end42

while.body20:                                     ; preds = %while.cond19
  %7 = load i32, ptr %type.addr, align 4
  %cmp21 = icmp eq i32 %7, 1
  store i1 false, ptr %cleanup.cond28, align 1
  br i1 %cmp21, label %lor.end, label %lor.rhs

lor.rhs:                                          ; preds = %while.body20
  %8 = load i32, ptr %type.addr, align 4
  %cmp22 = icmp eq i32 %8, 2
  br label %lor.end

lor.end:                                          ; preds = %lor.rhs, %while.body20
  %9 = phi i1 [ true, %while.body20 ], [ %cmp22, %lor.rhs ]
  %lnot23 = xor i1 %9, true
  br i1 %lnot23, label %cond.false25, label %cond.true24

cond.true24:                                      ; preds = %lor.end
  br label %cond.end35

cond.false25:                                     ; preds = %lor.end
  call void @_ZN6google17LogMessageVoidifyC2Ev(ptr noundef nonnull align 1 dereferenceable(1) %ref.tmp26)
  call void @_ZN6google15LogMessageFatalC1EPKci(ptr noundef nonnull align 8 dereferenceable(96) %ref.tmp27, ptr noundef @.str, i32 noundef 30)
  store i1 true, ptr %cleanup.cond28, align 1
  %call31 = invoke noundef nonnull align 8 dereferenceable(8) ptr @_ZN6google10LogMessage6streamEv(ptr noundef nonnull align 8 dereferenceable(96) %ref.tmp27)
          to label %invoke.cont30 unwind label %lpad29

invoke.cont30:                                    ; preds = %cond.false25
  %call33 = invoke noundef nonnull align 8 dereferenceable(8) ptr @_ZStlsISt11char_traitsIcEERSt13basic_ostreamIcT_ES5_PKc(ptr noundef nonnull align 8 dereferenceable(8) %call31, ptr noundef @.str.3)
          to label %invoke.cont32 unwind label %lpad29

invoke.cont32:                                    ; preds = %invoke.cont30
  invoke void @_ZN6google17LogMessageVoidifyanERSo(ptr noundef nonnull align 1 dereferenceable(1) %ref.tmp26, ptr noundef nonnull align 8 dereferenceable(8) %call33)
          to label %invoke.cont34 unwind label %lpad29

invoke.cont34:                                    ; preds = %invoke.cont32
  br label %cond.end35

cond.end35:                                       ; preds = %invoke.cont34, %cond.true24
  %cleanup.is_active36 = load i1, ptr %cleanup.cond28, align 1
  br i1 %cleanup.is_active36, label %cleanup.action37, label %cleanup.done38

cleanup.action37:                                 ; preds = %cond.end35
  call void @_ZN6google15LogMessageFatalD1Ev(ptr noundef nonnull align 8 dereferenceable(96) %ref.tmp27) #11
  unreachable

lpad29:                                           ; preds = %invoke.cont32, %invoke.cont30, %cond.false25
  %10 = landingpad { ptr, i32 }
          cleanup
  %11 = extractvalue { ptr, i32 } %10, 0
  store ptr %11, ptr %exn.slot, align 8
  %12 = extractvalue { ptr, i32 } %10, 1
  store i32 %12, ptr %ehselector.slot, align 4
  %cleanup.is_active39 = load i1, ptr %cleanup.cond28, align 1
  br i1 %cleanup.is_active39, label %cleanup.action40, label %cleanup.done41

13:                                               ; No predecessors!
  br label %cleanup.done38

cleanup.done38:                                   ; preds = %13, %cond.end35
  br label %while.cond19, !llvm.loop !6

cleanup.action40:                                 ; preds = %lpad29
  call void @_ZN6google15LogMessageFatalD1Ev(ptr noundef nonnull align 8 dereferenceable(96) %ref.tmp27) #11
  unreachable

14:                                               ; No predecessors!
  br label %cleanup.done41

cleanup.done41:                                   ; preds = %14, %lpad29
  br label %eh.resume

while.end42:                                      ; preds = %while.cond19
  %type_43 = getelementptr inbounds %"class.proxygen::ZlibStreamDecompressor", ptr %this1, i32 0, i32 1
  %15 = load i32, ptr %type_43, align 8
  %cmp44 = icmp eq i32 %15, 2
  %cond = select i1 %cmp44, i32 31, i32 15
  store i32 %cond, ptr %windowBits, align 4
  %zlibStream_45 = getelementptr inbounds %"class.proxygen::ZlibStreamDecompressor", ptr %this1, i32 0, i32 5
  %16 = load i32, ptr %windowBits, align 4
  %call46 = call i32 @inflateInit2_(ptr noundef %zlibStream_45, i32 noundef %16, ptr noundef @.str.4, i32 noundef 112)
  %status_47 = getelementptr inbounds %"class.proxygen::ZlibStreamDecompressor", ptr %this1, i32 0, i32 6
  store i32 %call46, ptr %status_47, align 8
  ret void

eh.resume:                                        ; preds = %cleanup.done41, %cleanup.done10
  %exn = load ptr, ptr %exn.slot, align 8
  %sel = load i32, ptr %ehselector.slot, align 4
  %lpad.val = insertvalue { ptr, i32 } poison, ptr %exn, 0
  %lpad.val48 = insertvalue { ptr, i32 } %lpad.val, i32 %sel, 1
  resume { ptr, i32 } %lpad.val48
}

; Function Attrs: mustprogress nounwind uwtable
define linkonce_odr void @_ZN8proxygen18StreamDecompressorC2Ev(ptr noundef nonnull align 8 dereferenceable(8) %this) unnamed_addr #1 comdat align 2 {
entry:
  %this.addr = alloca ptr, align 8
  store ptr %this, ptr %this.addr, align 8
  %this1 = load ptr, ptr %this.addr, align 8
  store ptr getelementptr inbounds ({ [7 x ptr] }, ptr @_ZTVN8proxygen18StreamDecompressorE, i32 0, i32 0, i32 2), ptr %this1, align 8
  ret void
}

; Function Attrs: mustprogress uwtable
define void @_ZN8proxygen22ZlibStreamDecompressorC2ENS_15CompressionTypeEmm(ptr noundef nonnull align 8 dereferenceable(148) %this, i32 noundef %type, i64 noundef %zlib_decompressor_buffer_growth, i64 noundef %zlib_decompressor_buffer_minsize) unnamed_addr #0 align 2 personality ptr @__gxx_personality_v0 {
entry:
  %this.addr = alloca ptr, align 8
  %type.addr = alloca i32, align 4
  %zlib_decompressor_buffer_growth.addr = alloca i64, align 8
  %zlib_decompressor_buffer_minsize.addr = alloca i64, align 8
  %exn.slot = alloca ptr, align 8
  %ehselector.slot = alloca i32, align 4
  store ptr %this, ptr %this.addr, align 8
  store i32 %type, ptr %type.addr, align 4
  store i64 %zlib_decompressor_buffer_growth, ptr %zlib_decompressor_buffer_growth.addr, align 8
  store i64 %zlib_decompressor_buffer_minsize, ptr %zlib_decompressor_buffer_minsize.addr, align 8
  %this1 = load ptr, ptr %this.addr, align 8
  call void @_ZN8proxygen18StreamDecompressorC2Ev(ptr noundef nonnull align 8 dereferenceable(8) %this1) #12
  store ptr getelementptr inbounds ({ [7 x ptr] }, ptr @_ZTVN8proxygen22ZlibStreamDecompressorE, i32 0, i32 0, i32 2), ptr %this1, align 8
  %type_ = getelementptr inbounds %"class.proxygen::ZlibStreamDecompressor", ptr %this1, i32 0, i32 1
  store i32 0, ptr %type_, align 8
  %decompressor_buffer_growth_ = getelementptr inbounds %"class.proxygen::ZlibStreamDecompressor", ptr %this1, i32 0, i32 3
  %0 = load i64, ptr %zlib_decompressor_buffer_growth.addr, align 8
  store i64 %0, ptr %decompressor_buffer_growth_, align 8
  %decompressor_buffer_minsize_ = getelementptr inbounds %"class.proxygen::ZlibStreamDecompressor", ptr %this1, i32 0, i32 4
  %1 = load i64, ptr %zlib_decompressor_buffer_minsize.addr, align 8
  store i64 %1, ptr %decompressor_buffer_minsize_, align 8
  %status_ = getelementptr inbounds %"class.proxygen::ZlibStreamDecompressor", ptr %this1, i32 0, i32 6
  store i32 0, ptr %status_, align 8
  %2 = load i32, ptr %type.addr, align 4
  invoke void @_ZN8proxygen22ZlibStreamDecompressor4initENS_15CompressionTypeE(ptr noundef nonnull align 8 dereferenceable(148) %this1, i32 noundef %2)
          to label %invoke.cont unwind label %lpad

invoke.cont:                                      ; preds = %entry
  ret void

lpad:                                             ; preds = %entry
  %3 = landingpad { ptr, i32 }
          cleanup
  %4 = extractvalue { ptr, i32 } %3, 0
  store ptr %4, ptr %exn.slot, align 8
  %5 = extractvalue { ptr, i32 } %3, 1
  store i32 %5, ptr %ehselector.slot, align 4
  call void @_ZN8proxygen18StreamDecompressorD2Ev(ptr noundef nonnull align 8 dereferenceable(8) %this1) #12
  br label %eh.resume

eh.resume:                                        ; preds = %lpad
  %exn = load ptr, ptr %exn.slot, align 8
  %sel = load i32, ptr %ehselector.slot, align 4
  %lpad.val = insertvalue { ptr, i32 } poison, ptr %exn, 0
  %lpad.val2 = insertvalue { ptr, i32 } %lpad.val, i32 %sel, 1
  resume { ptr, i32 } %lpad.val2
}