; Function Attrs: mustprogress uwtable
define void @_ZN8proxygen22ZlibStreamDecompressorC2ENS_15CompressionTypeEmm(ptr noundef nonnull align 8 dereferenceable(148) %this, i32 noundef %type, i64 noundef %zlib_decompressor_buffer_growth, i64 noundef %zlib_decompressor_buffer_minsize) unnamed_addr #0 align 2 personality ptr @__gxx_personality_v0 {
entry:
  store ptr getelementptr inbounds ({ [7 x ptr] }, ptr @_ZTVN8proxygen22ZlibStreamDecompressorE, i64 0, i32 0, i64 2), ptr %this, align 8
  %type_ = getelementptr inbounds i8, ptr %this, i64 8
  %decompressor_buffer_growth_ = getelementptr inbounds i8, ptr %this, i64 16
  store i64 %zlib_decompressor_buffer_growth, ptr %decompressor_buffer_growth_, align 8
  %decompressor_buffer_minsize_ = getelementptr inbounds i8, ptr %this, i64 24
  store i64 %zlib_decompressor_buffer_minsize, ptr %decompressor_buffer_minsize_, align 8
  %status_ = getelementptr inbounds i8, ptr %this, i64 144
  store i32 %type, ptr %type_, align 8
  store i32 0, ptr %status_, align 8
  %zlibStream_.i = getelementptr inbounds i8, ptr %this, i64 32
  %zalloc.i = getelementptr inbounds i8, ptr %this, i64 96
  %total_in.i = getelementptr inbounds i8, ptr %this, i64 48
  store ptr null, ptr %zlibStream_.i, align 8
  %avail_in.i = getelementptr inbounds i8, ptr %this, i64 40
  store i32 0, ptr %avail_in.i, align 8
  %cmp44.i = icmp eq i32 %type, 2
  %cond.i = select i1 %cmp44.i, i32 31, i32 15
  tail call void @llvm.memset.p0.i64(ptr noundef nonnull align 8 dereferenceable(20) %total_in.i, i8 0, i64 20, i1 false)
  tail call void @llvm.memset.p0.i64(ptr noundef nonnull align 8 dereferenceable(24) %zalloc.i, i8 0, i64 24, i1 false)
  %call46.i1 = tail call i32 @inflateInit2_(ptr noundef nonnull %zlibStream_.i, i32 noundef %cond.i, ptr noundef nonnull @.str.4, i32 noundef 112)
  store i32 %call46.i1, ptr %status_, align 8
  ret void
}